target datalayout = "e-m:e-p270:32:32-p271:32:32-p272:64:64-i64:64-i128:128-f80:128-n8:16:32:64-S128"
target triple = "x86_64-pc-linux-gnu"

%"class.Luau::AstNode.base" = type <{ ptr, i32, %"struct.Luau::Location" }>
%"struct.Luau::Location" = type { %"struct.Luau::Position", %"struct.Luau::Position" }
%"struct.Luau::Position" = type { i32, i32 }
%"class.Luau::AstExprCall" = type <{ %"class.Luau::AstExpr.base", [4 x i8], ptr, %"struct.Luau::AstArray.304", i8, [3 x i8], %"struct.Luau::Location", [4 x i8] }>
%"class.Luau::AstExpr.base" = type { %"class.Luau::AstNode.base" }
%"struct.Luau::AstArray.304" = type { ptr, i64 }

; Function Attrs: mustprogress nounwind uwtable
define linkonce_odr dso_local noundef ptr @_ZNK4Luau8AstArrayIPNS_7AstExprEE3endEv(ptr noundef nonnull align 8 dereferenceable(16) %0) #2 comdat align 2 {
  %2 = alloca ptr, align 8
  store ptr %0, ptr %2, align 8, !tbaa !671
  %3 = load ptr, ptr %2, align 8
  %4 = getelementptr inbounds nuw %"struct.Luau::AstArray.304", ptr %3, i32 0, i32 0
  %5 = load ptr, ptr %4, align 8, !tbaa !591
  %6 = getelementptr inbounds nuw %"struct.Luau::AstArray.304", ptr %3, i32 0, i32 1
  %7 = load i64, ptr %6, align 8, !tbaa !590
  %8 = getelementptr inbounds nuw ptr, ptr %5, i64 %7
  ret ptr %8
}

; Function Attrs: mustprogress nounwind uwtable
define linkonce_odr dso_local noundef ptr @_ZNK4Luau8AstArrayIPNS_7AstExprEE5beginEv(ptr noundef nonnull align 8 dereferenceable(16) %0) #2 comdat align 2 {
  %2 = alloca ptr, align 8
  store ptr %0, ptr %2, align 8, !tbaa !671
  %3 = load ptr, ptr %2, align 8
  %4 = getelementptr inbounds nuw %"struct.Luau::AstArray.304", ptr %3, i32 0, i32 0
  %5 = load ptr, ptr %4, align 8, !tbaa !591
  ret ptr %5
}

; Function Attrs: mustprogress uwtable
define dso_local void @_ZN4Luau12TypeChecker25visitEPNS_11AstExprCallE(ptr noundef nonnull align 8 dereferenceable(784) %0, ptr noundef %1) #7 align 2 {
  %3 = alloca ptr, align 8
  %4 = alloca ptr, align 8
  %5 = alloca ptr, align 8
  %6 = alloca ptr, align 8
  %7 = alloca ptr, align 8
  %8 = alloca ptr, align 8
  store ptr %0, ptr %3, align 8, !tbaa !131
  store ptr %1, ptr %4, align 8, !tbaa !299
  %9 = load ptr, ptr %3, align 8
  %10 = load ptr, ptr %4, align 8, !tbaa !299
  %11 = getelementptr inbounds nuw %"class.Luau::AstExprCall", ptr %10, i32 0, i32 2
  %12 = load ptr, ptr %11, align 8, !tbaa !301
  call void @_ZN4Luau12TypeChecker25visitEPNS_7AstExprENS_12ValueContextE(ptr noundef nonnull align 8 dereferenceable(784) %9, ptr noundef %12, i32 noundef 1)
  call void @llvm.lifetime.start.p0(i64 8, ptr %5) #4
  %13 = load ptr, ptr %4, align 8, !tbaa !299
  %14 = getelementptr inbounds nuw %"class.Luau::AstExprCall", ptr %13, i32 0, i32 3
  store ptr %14, ptr %5, align 8, !tbaa !671
  call void @llvm.lifetime.start.p0(i64 8, ptr %6) #4
  %15 = load ptr, ptr %5, align 8, !tbaa !671
  %16 = call noundef ptr @_ZNK4Luau8AstArrayIPNS_7AstExprEE5beginEv(ptr noundef nonnull align 8 dereferenceable(16) %15)
  store ptr %16, ptr %6, align 8, !tbaa !535
  call void @llvm.lifetime.start.p0(i64 8, ptr %7) #4
  %17 = load ptr, ptr %5, align 8, !tbaa !671
  %18 = call noundef ptr @_ZNK4Luau8AstArrayIPNS_7AstExprEE3endEv(ptr noundef nonnull align 8 dereferenceable(16) %17)
  store ptr %18, ptr %7, align 8, !tbaa !535
  br label %19

19:                                               ; preds = %28, %2
  %20 = load ptr, ptr %6, align 8, !tbaa !535
  %21 = load ptr, ptr %7, align 8, !tbaa !535
  %22 = icmp ne ptr %20, %21
  br i1 %22, label %24, label %23

23:                                               ; preds = %19
  call void @llvm.lifetime.end.p0(i64 8, ptr %7) #4
  call void @llvm.lifetime.end.p0(i64 8, ptr %6) #4
  call void @llvm.lifetime.end.p0(i64 8, ptr %5) #4
  br label %31

24:                                               ; preds = %19
  call void @llvm.lifetime.start.p0(i64 8, ptr %8) #4
  %25 = load ptr, ptr %6, align 8, !tbaa !535
  %26 = load ptr, ptr %25, align 8, !tbaa !312
  store ptr %26, ptr %8, align 8, !tbaa !312
  %27 = load ptr, ptr %8, align 8, !tbaa !312
  call void @_ZN4Luau12TypeChecker25visitEPNS_7AstExprENS_12ValueContextE(ptr noundef nonnull align 8 dereferenceable(784) %9, ptr noundef %27, i32 noundef 1)
  call void @llvm.lifetime.end.p0(i64 8, ptr %8) #4
  br label %28

28:                                               ; preds = %24
  %29 = load ptr, ptr %6, align 8, !tbaa !535
  %30 = getelementptr inbounds nuw ptr, ptr %29, i32 1
  store ptr %30, ptr %6, align 8, !tbaa !535
  br label %19

31:                                               ; preds = %23
  %32 = load ptr, ptr %4, align 8, !tbaa !299
  call void @_ZN4Luau12TypeChecker29visitCallEPNS_11AstExprCallE(ptr noundef nonnull align 8 dereferenceable(784) %9, ptr noundef %32)
  ret void
}