; Function Attrs: mustprogress uwtable
define dso_local void @_ZN4Luau12TypeChecker25visitEPNS_11AstExprCallE(ptr noundef nonnull align 8 dereferenceable(784) %0, ptr noundef %1) local_unnamed_addr #5 align 2 {
  %3 = getelementptr inbounds nuw i8, ptr %1, i64 32
  %4 = load ptr, ptr %3, align 8, !tbaa !235
  tail call void @_ZN4Luau12TypeChecker25visitEPNS_7AstExprENS_12ValueContextE(ptr noundef nonnull align 8 dereferenceable(784) %0, ptr noundef %4, i32 noundef 1)
  %5 = getelementptr inbounds nuw i8, ptr %1, i64 40
  %6 = load ptr, ptr %5, align 8, !tbaa !505
  %7 = getelementptr inbounds nuw i8, ptr %1, i64 48
  %8 = load i64, ptr %7, align 8, !tbaa !506
  %9 = getelementptr inbounds nuw ptr, ptr %6, i64 %8
  %.not11 = icmp eq i64 %8, 0
  br i1 %.not11, label %._crit_edge, label %.lr.ph

._crit_edge:                                      ; preds = %.lr.ph, %2
  tail call void @_ZN4Luau12TypeChecker29visitCallEPNS_11AstExprCallE(ptr noundef nonnull align 8 dereferenceable(784) %0, ptr noundef nonnull %1)
  ret void

.lr.ph:                                           ; preds = %2, %.lr.ph
  %.012 = phi ptr [ %11, %.lr.ph ], [ %6, %2 ]
  %10 = load ptr, ptr %.012, align 8, !tbaa !249
  tail call void @_ZN4Luau12TypeChecker25visitEPNS_7AstExprENS_12ValueContextE(ptr noundef nonnull align 8 dereferenceable(784) %0, ptr noundef %10, i32 noundef 1)
  %11 = getelementptr inbounds nuw i8, ptr %.012, i64 8
  %.not = icmp eq ptr %11, %9
  br i1 %.not, label %._crit_edge, label %.lr.ph
}